target datalayout = "e-m:e-p270:32:32-p271:32:32-p272:64:64-i64:64-i128:128-f80:128-n8:16:32:64-S128"
target triple = "x86_64-pc-linux-gnu"

%struct._ir_ctx = type { ptr, i32, i32, i32, i32, i32, i32, i32, i32, i32, i32, %struct._ir_insn, ptr, ptr, ptr, i32, i32, i32, ptr, ptr, ptr, ptr, ptr, ptr, i32, i32, i64, i32, i32, i32, i64, i32, i32, i32, i32, ptr, ptr, ptr, ptr, ptr, ptr, %union.anon.13, ptr, i32, i32, i32, i64, i32, i32, i32, ptr, ptr, ptr, ptr, %struct._ir_strtab, [61 x i32], [14 x i32] }
%struct._ir_insn = type { %struct.anon, %union.anon.5 }
%struct.anon = type { %union.anon, %union.anon.4 }
%union.anon = type { i32 }
%union.anon.4 = type { i32 }
%union.anon.5 = type { %union._ir_val }
%union._ir_val = type { double }
%union.anon.13 = type { ptr }
%struct._ir_strtab = type { ptr, i32, i32, i32, i32, ptr, i32, i32 }
%struct.anon.0 = type { %union.anon.1, %union.anon.3 }
%union.anon.1 = type { i16 }
%union.anon.3 = type { i16 }
%struct.anon.2 = type { i8, i8 }
%struct._ir_use_list = type { i32, i32 }
%struct.anon.6 = type { i32, i32 }

; Function Attrs: nounwind uwtable
define internal i32 @ir_promote_i2i(ptr noundef %0, i32 noundef %1, i32 noundef %2, i32 noundef %3) #0 {
  %5 = alloca i32, align 4
  %6 = alloca ptr, align 8
  %7 = alloca i32, align 4
  %8 = alloca i32, align 4
  %9 = alloca i32, align 4
  %10 = alloca ptr, align 8
  %11 = alloca i32, align 4
  %12 = alloca i32, align 4
  %13 = alloca ptr, align 8
  store ptr %0, ptr %6, align 8, !tbaa !4
  store i32 %1, ptr %7, align 4, !tbaa !33
  store i32 %2, ptr %8, align 4, !tbaa !33
  store i32 %3, ptr %9, align 4, !tbaa !33
  call void @llvm.lifetime.start.p0(i64 8, ptr %10) #10
  %14 = load ptr, ptr %6, align 8, !tbaa !4
  %15 = getelementptr inbounds nuw %struct._ir_ctx, ptr %14, i32 0, i32 0
  %16 = load ptr, ptr %15, align 8, !tbaa !45
  %17 = load i32, ptr %8, align 4, !tbaa !33
  %18 = sext i32 %17 to i64
  %19 = getelementptr inbounds %struct._ir_insn, ptr %16, i64 %18
  store ptr %19, ptr %10, align 8, !tbaa !31
  call void @llvm.lifetime.start.p0(i64 4, ptr %11) #10
  %20 = load i32, ptr %8, align 4, !tbaa !33
  %21 = icmp slt i32 %20, 0
  br i1 %21, label %22, label %31

22:                                               ; preds = %4
  %23 = load ptr, ptr %6, align 8, !tbaa !4
  %24 = load ptr, ptr %10, align 8, !tbaa !31
  %25 = getelementptr inbounds nuw %struct._ir_insn, ptr %24, i32 0, i32 1
  %26 = load i32, ptr %7, align 4, !tbaa !33
  %27 = trunc i32 %26 to i8
  %28 = getelementptr inbounds nuw %union._ir_val, ptr %25, i32 0, i32 0
  %29 = load i64, ptr %28, align 8
  %30 = call i32 @ir_const(ptr noundef %23, i64 %29, i8 noundef zeroext %27)
  store i32 %30, ptr %5, align 4
  store i32 1, ptr %12, align 4
  br label %227

31:                                               ; preds = %4
  %32 = load ptr, ptr %10, align 8, !tbaa !31
  %33 = getelementptr inbounds nuw %struct._ir_insn, ptr %32, i32 0, i32 0
  %34 = getelementptr inbounds nuw %struct.anon, ptr %33, i32 0, i32 0
  %35 = getelementptr inbounds nuw %struct.anon.0, ptr %34, i32 0, i32 0
  %36 = getelementptr inbounds nuw %struct.anon.2, ptr %35, i32 0, i32 0
  %37 = load i8, ptr %36, align 8, !tbaa !46
  %38 = zext i8 %37 to i32
  switch i32 %38, label %223 [
    i32 32, label %39
    i32 31, label %39
    i32 29, label %146
    i32 30, label %146
    i32 43, label %146
    i32 24, label %166
    i32 25, label %166
    i32 26, label %166
    i32 56, label %166
    i32 57, label %166
    i32 44, label %166
    i32 45, label %166
    i32 46, label %166
  ]

39:                                               ; preds = %31, %31
  %40 = load ptr, ptr %6, align 8, !tbaa !4
  %41 = getelementptr inbounds nuw %struct._ir_ctx, ptr %40, i32 0, i32 13
  %42 = load ptr, ptr %41, align 8, !tbaa !47
  %43 = load i32, ptr %8, align 4, !tbaa !33
  %44 = sext i32 %43 to i64
  %45 = getelementptr inbounds %struct._ir_use_list, ptr %42, i64 %44
  %46 = getelementptr inbounds nuw %struct._ir_use_list, ptr %45, i32 0, i32 1
  %47 = load i32, ptr %46, align 4, !tbaa !48
  store i32 %47, ptr %11, align 4, !tbaa !33
  %48 = load ptr, ptr %6, align 8, !tbaa !4
  %49 = load i32, ptr %8, align 4, !tbaa !33
  %50 = load i32, ptr %9, align 4, !tbaa !33
  call void @ir_use_list_remove_all(ptr noundef %48, i32 noundef %49, i32 noundef %50)
  %51 = load ptr, ptr %6, align 8, !tbaa !4
  %52 = getelementptr inbounds nuw %struct._ir_ctx, ptr %51, i32 0, i32 13
  %53 = load ptr, ptr %52, align 8, !tbaa !47
  %54 = load i32, ptr %8, align 4, !tbaa !33
  %55 = sext i32 %54 to i64
  %56 = getelementptr inbounds %struct._ir_use_list, ptr %53, i64 %55
  %57 = getelementptr inbounds nuw %struct._ir_use_list, ptr %56, i32 0, i32 1
  %58 = load i32, ptr %57, align 4, !tbaa !48
  %59 = icmp eq i32 %58, 0
  br i1 %59, label %60, label %106

60:                                               ; preds = %39
  %61 = load ptr, ptr %6, align 8, !tbaa !4
  %62 = load ptr, ptr %10, align 8, !tbaa !31
  %63 = getelementptr inbounds nuw %struct._ir_insn, ptr %62, i32 0, i32 0
  %64 = getelementptr inbounds nuw %struct.anon, ptr %63, i32 0, i32 1
  %65 = load i32, ptr %64, align 4, !tbaa !46
  %66 = load i32, ptr %8, align 4, !tbaa !33
  %67 = load i32, ptr %9, align 4, !tbaa !33
  call void @ir_use_list_replace_one(ptr noundef %61, i32 noundef %65, i32 noundef %66, i32 noundef %67)
  %68 = load i32, ptr %11, align 4, !tbaa !33
  %69 = icmp ugt i32 %68, 1
  br i1 %69, label %70, label %84

70:                                               ; preds = %60
  br label %71

71:                                               ; preds = %79, %70
  %72 = load ptr, ptr %6, align 8, !tbaa !4
  %73 = load ptr, ptr %10, align 8, !tbaa !31
  %74 = getelementptr inbounds nuw %struct._ir_insn, ptr %73, i32 0, i32 0
  %75 = getelementptr inbounds nuw %struct.anon, ptr %74, i32 0, i32 1
  %76 = load i32, ptr %75, align 4, !tbaa !46
  %77 = load i32, ptr %9, align 4, !tbaa !33
  %78 = call zeroext i1 @ir_use_list_add(ptr noundef %72, i32 noundef %76, i32 noundef %77)
  br label %79

79:                                               ; preds = %71
  %80 = load i32, ptr %11, align 4, !tbaa !33
  %81 = add i32 %80, -1
  store i32 %81, ptr %11, align 4, !tbaa !33
  %82 = icmp ugt i32 %81, 1
  br i1 %82, label %71, label %83

83:                                               ; preds = %79
  br label %84

84:                                               ; preds = %83, %60
  %85 = load ptr, ptr %10, align 8, !tbaa !31
  %86 = getelementptr inbounds nuw %struct._ir_insn, ptr %85, i32 0, i32 0
  %87 = getelementptr inbounds nuw %struct.anon, ptr %86, i32 0, i32 1
  %88 = load i32, ptr %87, align 4, !tbaa !46
  store i32 %88, ptr %8, align 4, !tbaa !33
  br label %89

89:                                               ; preds = %84
  call void @llvm.lifetime.start.p0(i64 8, ptr %13) #10
  %90 = load ptr, ptr %10, align 8, !tbaa !31
  store ptr %90, ptr %13, align 8, !tbaa !31
  %91 = load ptr, ptr %13, align 8, !tbaa !31
  %92 = getelementptr inbounds nuw %struct._ir_insn, ptr %91, i32 0, i32 0
  %93 = getelementptr inbounds nuw %struct.anon, ptr %92, i32 0, i32 0
  store i32 0, ptr %93, align 8, !tbaa !46
  %94 = load ptr, ptr %13, align 8, !tbaa !31
  %95 = getelementptr inbounds nuw %struct._ir_insn, ptr %94, i32 0, i32 1
  %96 = getelementptr inbounds nuw %struct.anon.6, ptr %95, i32 0, i32 1
  store i32 0, ptr %96, align 4, !tbaa !46
  %97 = load ptr, ptr %13, align 8, !tbaa !31
  %98 = getelementptr inbounds nuw %struct._ir_insn, ptr %97, i32 0, i32 1
  %99 = getelementptr inbounds nuw %struct.anon.6, ptr %98, i32 0, i32 0
  store i32 0, ptr %99, align 8, !tbaa !46
  %100 = load ptr, ptr %13, align 8, !tbaa !31
  %101 = getelementptr inbounds nuw %struct._ir_insn, ptr %100, i32 0, i32 0
  %102 = getelementptr inbounds nuw %struct.anon, ptr %101, i32 0, i32 1
  store i32 0, ptr %102, align 4, !tbaa !46
  call void @llvm.lifetime.end.p0(i64 8, ptr %13) #10
  br label %103

103:                                              ; preds = %89
  br label %104

104:                                              ; preds = %103
  %105 = load i32, ptr %8, align 4, !tbaa !33
  store i32 %105, ptr %5, align 4
  store i32 1, ptr %12, align 4
  br label %227

106:                                              ; preds = %39
  %107 = load ptr, ptr %6, align 8, !tbaa !4
  %108 = load ptr, ptr %10, align 8, !tbaa !31
  %109 = getelementptr inbounds nuw %struct._ir_insn, ptr %108, i32 0, i32 0
  %110 = getelementptr inbounds nuw %struct.anon, ptr %109, i32 0, i32 1
  %111 = load i32, ptr %110, align 4, !tbaa !46
  %112 = load i32, ptr %9, align 4, !tbaa !33
  %113 = call zeroext i1 @ir_use_list_add(ptr noundef %107, i32 noundef %111, i32 noundef %112)
  %114 = load ptr, ptr %6, align 8, !tbaa !4
  %115 = getelementptr inbounds nuw %struct._ir_ctx, ptr %114, i32 0, i32 13
  %116 = load ptr, ptr %115, align 8, !tbaa !47
  %117 = load i32, ptr %8, align 4, !tbaa !33
  %118 = sext i32 %117 to i64
  %119 = getelementptr inbounds %struct._ir_use_list, ptr %116, i64 %118
  %120 = getelementptr inbounds nuw %struct._ir_use_list, ptr %119, i32 0, i32 1
  %121 = load i32, ptr %120, align 4, !tbaa !48
  %122 = load i32, ptr %11, align 4, !tbaa !33
  %123 = sub i32 %122, %121
  store i32 %123, ptr %11, align 4, !tbaa !33
  %124 = load i32, ptr %11, align 4, !tbaa !33
  %125 = icmp ugt i32 %124, 1
  br i1 %125, label %126, label %140

126:                                              ; preds = %106
  br label %127

127:                                              ; preds = %135, %126
  %128 = load ptr, ptr %6, align 8, !tbaa !4
  %129 = load ptr, ptr %10, align 8, !tbaa !31
  %130 = getelementptr inbounds nuw %struct._ir_insn, ptr %129, i32 0, i32 0
  %131 = getelementptr inbounds nuw %struct.anon, ptr %130, i32 0, i32 1
  %132 = load i32, ptr %131, align 4, !tbaa !46
  %133 = load i32, ptr %9, align 4, !tbaa !33
  %134 = call zeroext i1 @ir_use_list_add(ptr noundef %128, i32 noundef %132, i32 noundef %133)
  br label %135

135:                                              ; preds = %127
  %136 = load i32, ptr %11, align 4, !tbaa !33
  %137 = add i32 %136, -1
  store i32 %137, ptr %11, align 4, !tbaa !33
  %138 = icmp ugt i32 %137, 1
  br i1 %138, label %127, label %139

139:                                              ; preds = %135
  br label %140

140:                                              ; preds = %139, %106
  br label %141

141:                                              ; preds = %140
  %142 = load ptr, ptr %10, align 8, !tbaa !31
  %143 = getelementptr inbounds nuw %struct._ir_insn, ptr %142, i32 0, i32 0
  %144 = getelementptr inbounds nuw %struct.anon, ptr %143, i32 0, i32 1
  %145 = load i32, ptr %144, align 4, !tbaa !46
  store i32 %145, ptr %5, align 4
  store i32 1, ptr %12, align 4
  br label %227

146:                                              ; preds = %31, %31, %31
  %147 = load ptr, ptr %6, align 8, !tbaa !4
  %148 = load i32, ptr %7, align 4, !tbaa !33
  %149 = load ptr, ptr %10, align 8, !tbaa !31
  %150 = getelementptr inbounds nuw %struct._ir_insn, ptr %149, i32 0, i32 0
  %151 = getelementptr inbounds nuw %struct.anon, ptr %150, i32 0, i32 1
  %152 = load i32, ptr %151, align 4, !tbaa !46
  %153 = load i32, ptr %8, align 4, !tbaa !33
  %154 = call i32 @ir_promote_i2i(ptr noundef %147, i32 noundef %148, i32 noundef %152, i32 noundef %153)
  %155 = load ptr, ptr %10, align 8, !tbaa !31
  %156 = getelementptr inbounds nuw %struct._ir_insn, ptr %155, i32 0, i32 0
  %157 = getelementptr inbounds nuw %struct.anon, ptr %156, i32 0, i32 1
  store i32 %154, ptr %157, align 4, !tbaa !46
  %158 = load i32, ptr %7, align 4, !tbaa !33
  %159 = trunc i32 %158 to i8
  %160 = load ptr, ptr %10, align 8, !tbaa !31
  %161 = getelementptr inbounds nuw %struct._ir_insn, ptr %160, i32 0, i32 0
  %162 = getelementptr inbounds nuw %struct.anon, ptr %161, i32 0, i32 0
  %163 = getelementptr inbounds nuw %struct.anon.0, ptr %162, i32 0, i32 0
  %164 = getelementptr inbounds nuw %struct.anon.2, ptr %163, i32 0, i32 1
  store i8 %159, ptr %164, align 1, !tbaa !46
  %165 = load i32, ptr %8, align 4, !tbaa !33
  store i32 %165, ptr %5, align 4
  store i32 1, ptr %12, align 4
  br label %227

166:                                              ; preds = %31, %31, %31, %31, %31, %31, %31, %31
  %167 = load ptr, ptr %10, align 8, !tbaa !31
  %168 = getelementptr inbounds nuw %struct._ir_insn, ptr %167, i32 0, i32 0
  %169 = getelementptr inbounds nuw %struct.anon, ptr %168, i32 0, i32 1
  %170 = load i32, ptr %169, align 4, !tbaa !46
  %171 = load ptr, ptr %10, align 8, !tbaa !31
  %172 = getelementptr inbounds nuw %struct._ir_insn, ptr %171, i32 0, i32 1
  %173 = getelementptr inbounds nuw %struct.anon.6, ptr %172, i32 0, i32 0
  %174 = load i32, ptr %173, align 8, !tbaa !46
  %175 = icmp eq i32 %170, %174
  br i1 %175, label %176, label %191

176:                                              ; preds = %166
  %177 = load ptr, ptr %6, align 8, !tbaa !4
  %178 = load i32, ptr %7, align 4, !tbaa !33
  %179 = load ptr, ptr %10, align 8, !tbaa !31
  %180 = getelementptr inbounds nuw %struct._ir_insn, ptr %179, i32 0, i32 0
  %181 = getelementptr inbounds nuw %struct.anon, ptr %180, i32 0, i32 1
  %182 = load i32, ptr %181, align 4, !tbaa !46
  %183 = load i32, ptr %8, align 4, !tbaa !33
  %184 = call i32 @ir_promote_i2i(ptr noundef %177, i32 noundef %178, i32 noundef %182, i32 noundef %183)
  %185 = load ptr, ptr %10, align 8, !tbaa !31
  %186 = getelementptr inbounds nuw %struct._ir_insn, ptr %185, i32 0, i32 0
  %187 = getelementptr inbounds nuw %struct.anon, ptr %186, i32 0, i32 1
  store i32 %184, ptr %187, align 4, !tbaa !46
  %188 = load ptr, ptr %10, align 8, !tbaa !31
  %189 = getelementptr inbounds nuw %struct._ir_insn, ptr %188, i32 0, i32 1
  %190 = getelementptr inbounds nuw %struct.anon.6, ptr %189, i32 0, i32 0
  store i32 %184, ptr %190, align 8, !tbaa !46
  br label %214

191:                                              ; preds = %166
  %192 = load ptr, ptr %6, align 8, !tbaa !4
  %193 = load i32, ptr %7, align 4, !tbaa !33
  %194 = load ptr, ptr %10, align 8, !tbaa !31
  %195 = getelementptr inbounds nuw %struct._ir_insn, ptr %194, i32 0, i32 0
  %196 = getelementptr inbounds nuw %struct.anon, ptr %195, i32 0, i32 1
  %197 = load i32, ptr %196, align 4, !tbaa !46
  %198 = load i32, ptr %8, align 4, !tbaa !33
  %199 = call i32 @ir_promote_i2i(ptr noundef %192, i32 noundef %193, i32 noundef %197, i32 noundef %198)
  %200 = load ptr, ptr %10, align 8, !tbaa !31
  %201 = getelementptr inbounds nuw %struct._ir_insn, ptr %200, i32 0, i32 0
  %202 = getelementptr inbounds nuw %struct.anon, ptr %201, i32 0, i32 1
  store i32 %199, ptr %202, align 4, !tbaa !46
  %203 = load ptr, ptr %6, align 8, !tbaa !4
  %204 = load i32, ptr %7, align 4, !tbaa !33
  %205 = load ptr, ptr %10, align 8, !tbaa !31
  %206 = getelementptr inbounds nuw %struct._ir_insn, ptr %205, i32 0, i32 1
  %207 = getelementptr inbounds nuw %struct.anon.6, ptr %206, i32 0, i32 0
  %208 = load i32, ptr %207, align 8, !tbaa !46
  %209 = load i32, ptr %8, align 4, !tbaa !33
  %210 = call i32 @ir_promote_i2i(ptr noundef %203, i32 noundef %204, i32 noundef %208, i32 noundef %209)
  %211 = load ptr, ptr %10, align 8, !tbaa !31
  %212 = getelementptr inbounds nuw %struct._ir_insn, ptr %211, i32 0, i32 1
  %213 = getelementptr inbounds nuw %struct.anon.6, ptr %212, i32 0, i32 0
  store i32 %210, ptr %213, align 8, !tbaa !46
  br label %214

214:                                              ; preds = %191, %176
  %215 = load i32, ptr %7, align 4, !tbaa !33
  %216 = trunc i32 %215 to i8
  %217 = load ptr, ptr %10, align 8, !tbaa !31
  %218 = getelementptr inbounds nuw %struct._ir_insn, ptr %217, i32 0, i32 0
  %219 = getelementptr inbounds nuw %struct.anon, ptr %218, i32 0, i32 0
  %220 = getelementptr inbounds nuw %struct.anon.0, ptr %219, i32 0, i32 0
  %221 = getelementptr inbounds nuw %struct.anon.2, ptr %220, i32 0, i32 1
  store i8 %216, ptr %221, align 1, !tbaa !46
  %222 = load i32, ptr %8, align 4, !tbaa !33
  store i32 %222, ptr %5, align 4
  store i32 1, ptr %12, align 4
  br label %227

223:                                              ; preds = %31
  br label %224

224:                                              ; preds = %223
  br label %225

225:                                              ; preds = %224
  %226 = load i32, ptr %8, align 4, !tbaa !33
  store i32 %226, ptr %5, align 4
  store i32 1, ptr %12, align 4
  br label %227

227:                                              ; preds = %225, %214, %146, %141, %104, %22
  call void @llvm.lifetime.end.p0(i64 4, ptr %11) #10
  call void @llvm.lifetime.end.p0(i64 8, ptr %10) #10
  %228 = load i32, ptr %5, align 4
  ret i32 %228
}