; Function Attrs: nounwind uwtable
define internal fastcc i32 @ir_promote_i2i(ptr noundef %0, i32 noundef range(i32 0, 256) %1, i32 noundef %2, i32 noundef range(i32 0, -2147483648) %3) unnamed_addr #0 {
  %5 = load ptr, ptr %0, align 8, !tbaa !38
  %6 = sext i32 %2 to i64
  %7 = getelementptr inbounds %struct._ir_insn, ptr %5, i64 %6
  %8 = icmp slt i32 %2, 0
  br i1 %8, label %9, label %14

9:                                                ; preds = %4
  %10 = getelementptr inbounds nuw i8, ptr %7, i64 8
  %11 = trunc nuw i32 %1 to i8
  %12 = load i64, ptr %10, align 8
  %13 = tail call i32 @ir_const(ptr noundef nonnull %0, i64 %12, i8 noundef zeroext %11) #13
  br label %common.ret80

14:                                               ; preds = %4
  %15 = load i8, ptr %7, align 8, !tbaa !39
  switch i8 %15, label %common.ret80 [
    i8 32, label %16
    i8 31, label %16
    i8 29, label %46
    i8 30, label %46
    i8 43, label %46
    i8 24, label %52
    i8 25, label %52
    i8 26, label %52
    i8 56, label %52
    i8 57, label %52
    i8 44, label %52
    i8 45, label %52
    i8 46, label %52
  ]

16:                                               ; preds = %14, %14
  %17 = getelementptr inbounds nuw i8, ptr %0, i64 72
  %18 = load ptr, ptr %17, align 8, !tbaa !41
  %19 = getelementptr inbounds nuw %struct._ir_use_list, ptr %18, i64 %6, i32 1
  %20 = load i32, ptr %19, align 4, !tbaa !42
  tail call void @ir_use_list_remove_all(ptr noundef nonnull %0, i32 noundef %2, i32 noundef %3) #13
  %21 = load ptr, ptr %17, align 8, !tbaa !41
  %22 = getelementptr inbounds nuw %struct._ir_use_list, ptr %21, i64 %6, i32 1
  %23 = load i32, ptr %22, align 4, !tbaa !42
  %24 = icmp eq i32 %23, 0
  %25 = getelementptr inbounds nuw i8, ptr %7, i64 4
  %26 = load i32, ptr %25, align 4, !tbaa !39
  br i1 %24, label %27, label %34

27:                                               ; preds = %16
  tail call void @ir_use_list_replace_one(ptr noundef nonnull %0, i32 noundef %26, i32 noundef %2, i32 noundef %3) #13
  %28 = icmp ugt i32 %20, 1
  br i1 %28, label %.preheader, label %.loopexit

.preheader:                                       ; preds = %27, %.preheader
  %.072 = phi i32 [ %31, %.preheader ], [ %20, %27 ]
  %29 = load i32, ptr %25, align 4, !tbaa !39
  %30 = tail call zeroext i1 @ir_use_list_add(ptr noundef nonnull %0, i32 noundef %29, i32 noundef %3) #13
  %31 = add i32 %.072, -1
  %32 = icmp ugt i32 %31, 1
  br i1 %32, label %.preheader, label %.loopexit

.loopexit:                                        ; preds = %.preheader, %27
  %33 = load i32, ptr %25, align 4, !tbaa !39
  tail call void @llvm.memset.p0.i64(ptr noundef nonnull align 8 dereferenceable(16) %7, i8 0, i64 16, i1 false)
  br label %common.ret80

34:                                               ; preds = %16
  %35 = tail call zeroext i1 @ir_use_list_add(ptr noundef nonnull %0, i32 noundef %26, i32 noundef %3) #13
  %36 = load ptr, ptr %17, align 8, !tbaa !41
  %37 = getelementptr inbounds nuw %struct._ir_use_list, ptr %36, i64 %6, i32 1
  %38 = load i32, ptr %37, align 4, !tbaa !42
  %39 = sub i32 %20, %38
  %40 = icmp ugt i32 %39, 1
  br i1 %40, label %.preheader78, label %.loopexit79

.preheader78:                                     ; preds = %34, %.preheader78
  %.1 = phi i32 [ %43, %.preheader78 ], [ %39, %34 ]
  %41 = load i32, ptr %25, align 4, !tbaa !39
  %42 = tail call zeroext i1 @ir_use_list_add(ptr noundef nonnull %0, i32 noundef %41, i32 noundef %3) #13
  %43 = add i32 %.1, -1
  %44 = icmp ugt i32 %43, 1
  br i1 %44, label %.preheader78, label %.loopexit79

.loopexit79:                                      ; preds = %.preheader78, %34
  %45 = load i32, ptr %25, align 4, !tbaa !39
  br label %common.ret80

common.ret80:                                     ; preds = %14, %62, %.loopexit79, %.loopexit, %9, %46
  %common.ret80.op = phi i32 [ %2, %46 ], [ %13, %9 ], [ %2, %62 ], [ %33, %.loopexit ], [ %45, %.loopexit79 ], [ %2, %14 ]
  ret i32 %common.ret80.op

46:                                               ; preds = %14, %14, %14
  %47 = getelementptr inbounds nuw i8, ptr %7, i64 4
  %48 = load i32, ptr %47, align 4, !tbaa !39
  %49 = tail call fastcc i32 @ir_promote_i2i(ptr noundef nonnull %0, i32 noundef %1, i32 noundef %48, i32 noundef %2)
  store i32 %49, ptr %47, align 4, !tbaa !39
  %50 = trunc nuw i32 %1 to i8
  %51 = getelementptr inbounds nuw i8, ptr %7, i64 1
  store i8 %50, ptr %51, align 1, !tbaa !39
  br label %common.ret80

52:                                               ; preds = %14, %14, %14, %14, %14, %14, %14, %14
  %53 = getelementptr inbounds nuw i8, ptr %7, i64 4
  %54 = load i32, ptr %53, align 4, !tbaa !39
  %55 = getelementptr inbounds nuw i8, ptr %7, i64 8
  %56 = load i32, ptr %55, align 8, !tbaa !39
  %57 = icmp eq i32 %54, %56
  %58 = tail call fastcc i32 @ir_promote_i2i(ptr noundef nonnull %0, i32 noundef %1, i32 noundef %54, i32 noundef %2)
  store i32 %58, ptr %53, align 4, !tbaa !39
  br i1 %57, label %62, label %59

59:                                               ; preds = %52
  %60 = load i32, ptr %55, align 8, !tbaa !39
  %61 = tail call fastcc i32 @ir_promote_i2i(ptr noundef nonnull %0, i32 noundef %1, i32 noundef %60, i32 noundef %2)
  br label %62

62:                                               ; preds = %52, %59
  %storemerge = phi i32 [ %61, %59 ], [ %58, %52 ]
  store i32 %storemerge, ptr %55, align 8, !tbaa !39
  %63 = trunc nuw i32 %1 to i8
  %64 = getelementptr inbounds nuw i8, ptr %7, i64 1
  store i8 %63, ptr %64, align 1, !tbaa !39
  br label %common.ret80
}